; Function Attrs: mustprogress nofree norecurse nosync nounwind willreturn memory(argmem: write) uwtable
define hidden void @PyExpat_XML_SetUnknownEncodingHandler(ptr noundef writeonly %0, ptr noundef %1, ptr noundef %2) local_unnamed_addr #3 {
  %4 = icmp eq ptr %0, null
  br i1 %4, label %8, label %5

5:                                                ; preds = %3
  %6 = getelementptr inbounds nuw i8, ptr %0, i64 264
  store ptr %1, ptr %6, align 8, !tbaa !59
  %7 = getelementptr inbounds nuw i8, ptr %0, i64 496
  store ptr %2, ptr %7, align 8, !tbaa !60
  br label %8

8:                                                ; preds = %3, %5
  ret void
}